; Function Attrs: nounwind uwtable
define i64 @nghttp2_session_mem_send2(ptr noundef %0, ptr noundef writeonly captures(none) initializes((0, 8)) %1) local_unnamed_addr #1 {
  store ptr null, ptr %1, align 8, !tbaa !147
  %3 = tail call fastcc i64 @nghttp2_session_mem_send_internal(ptr noundef %0, ptr noundef nonnull %1, i32 noundef 1)
  %4 = icmp slt i64 %3, 1
  br i1 %4, label %16, label %5

5:                                                ; preds = %2
  %6 = getelementptr inbounds nuw i8, ptr %0, i64 424
  %7 = load ptr, ptr %6, align 8, !tbaa !112
  %.not = icmp eq ptr %7, null
  br i1 %.not, label %16, label %8

8:                                                ; preds = %5
  %9 = tail call fastcc i32 @session_after_frame_sent1(ptr noundef nonnull %0)
  %10 = icmp slt i32 %9, 0
  br i1 %10, label %11, label %16

11:                                               ; preds = %8
  %12 = icmp samesign ugt i32 %9, -901
  br i1 %12, label %13, label %14

13:                                               ; preds = %11
  tail call void @__assert_fail(ptr noundef nonnull @.str.4, ptr noundef nonnull @.str.1, i32 noundef 3099, ptr noundef nonnull @__PRETTY_FUNCTION__.nghttp2_session_mem_send2) #17
  unreachable

14:                                               ; preds = %11
  %15 = sext i32 %9 to i64
  br label %16

16:                                               ; preds = %5, %8, %2, %14
  %.0 = phi i64 [ %15, %14 ], [ %3, %2 ], [ %3, %8 ], [ %3, %5 ]
  ret i64 %.0
}